target datalayout = "e-m:e-p270:32:32-p271:32:32-p272:64:64-i64:64-i128:128-f80:128-n8:16:32:64-S128"
target triple = "x86_64-pc-linux-gnu"

%struct.H5O_storage_chunk_t = type { i32, i64, ptr, %union.anon.4 }
%union.anon.4 = type { %struct.H5O_storage_chunk_btree_t }
%struct.H5O_storage_chunk_btree_t = type { i64, ptr }
%struct.H5O_storage_chunk_earray_t = type { i64, ptr }

@H5D_init_g = external global i8, align 1
@H5_libterm_g = external global i8, align 1
@.str.2 = private unnamed_addr constant [103 x i8] c"generated/home/dtcxzyw/WorkSpace/Projects/compilers/llvm-opt-benchmark/bench/hdf5/hdf5/src/H5Dearray.c\00", align 1
@H5E_DATASET_g = external global i64, align 8
@H5E_CANTCLOSEOBJ_g = external global i64, align 8
@.str.26 = private unnamed_addr constant [33 x i8] c"unable to close extensible array\00", align 1
@__func__.H5D__earray_idx_copy_shutdown = private unnamed_addr constant [30 x i8] c"H5D__earray_idx_copy_shutdown\00", align 1

; Function Attrs: nounwind uwtable
define internal i32 @H5D__earray_idx_copy_shutdown(ptr noundef %0, ptr noundef %1) #0 {
  %3 = alloca ptr, align 8
  %4 = alloca ptr, align 8
  %5 = alloca i32, align 4
  %6 = alloca i8, align 1
  store ptr %0, ptr %3, align 8, !tbaa !53
  store ptr %1, ptr %4, align 8, !tbaa !53
  call void @llvm.lifetime.start.p0(i64 4, ptr %5) #8
  store i32 0, ptr %5, align 4, !tbaa !12
  call void @llvm.lifetime.start.p0(i64 1, ptr %6) #8
  store i8 0, ptr %6, align 1, !tbaa !14
  %7 = load i8, ptr @H5D_init_g, align 1, !tbaa !14, !range !16, !noundef !17
  %8 = trunc i8 %7 to i1
  br i1 %8, label %13, label %9

9:                                                ; preds = %2
  %10 = load i8, ptr @H5_libterm_g, align 1, !tbaa !14, !range !16, !noundef !17
  %11 = trunc i8 %10 to i1
  %12 = xor i1 %11, true
  br label %13

13:                                               ; preds = %9, %2
  %14 = phi i1 [ true, %2 ], [ %12, %9 ]
  %15 = xor i1 %14, true
  %16 = xor i1 %15, true
  %17 = zext i1 %16 to i32
  %18 = sext i32 %17 to i64
  %19 = call i64 @llvm.expect.i64(i64 %18, i64 1)
  %20 = icmp ne i64 %19, 0
  br i1 %20, label %21, label %81

21:                                               ; preds = %13
  %22 = load ptr, ptr %3, align 8, !tbaa !53
  %23 = getelementptr inbounds nuw %struct.H5O_storage_chunk_t, ptr %22, i32 0, i32 3
  %24 = getelementptr inbounds nuw %struct.H5O_storage_chunk_earray_t, ptr %23, i32 0, i32 1
  %25 = load ptr, ptr %24, align 8, !tbaa !26
  %26 = call i32 @H5EA_close(ptr noundef %25)
  %27 = icmp slt i32 %26, 0
  br i1 %27, label %28, label %47

28:                                               ; preds = %21
  br label %29

29:                                               ; preds = %28
  br label %30

30:                                               ; preds = %29
  br label %31

31:                                               ; preds = %30
  %32 = load i64, ptr @H5E_DATASET_g, align 8, !tbaa !10
  %33 = load i64, ptr @H5E_CANTCLOSEOBJ_g, align 8, !tbaa !10
  %34 = call i32 (ptr, ptr, i32, i64, i64, ptr, ...) @H5E_printf_stack(ptr noundef @.str.2, ptr noundef @__func__.H5D__earray_idx_copy_shutdown, i32 noundef 1645, i64 noundef %32, i64 noundef %33, ptr noundef @.str.26)
  br label %35

35:                                               ; preds = %31
  br label %36

36:                                               ; preds = %35
  store i8 1, ptr %6, align 1, !tbaa !14
  %37 = load i8, ptr %6, align 1, !tbaa !14, !range !16, !noundef !17
  %38 = trunc i8 %37 to i1
  %39 = zext i1 %38 to i8
  store i8 %39, ptr %6, align 1, !tbaa !14
  br label %40

40:                                               ; preds = %36
  br label %41

41:                                               ; preds = %40
  br label %42

42:                                               ; preds = %41
  store i32 -1, ptr %5, align 4, !tbaa !12
  br label %80

43:                                               ; No predecessors!
  br label %44

44:                                               ; preds = %43
  br label %45

45:                                               ; preds = %44
  br label %46

46:                                               ; preds = %45
  br label %47

47:                                               ; preds = %46, %21
  %48 = load ptr, ptr %3, align 8, !tbaa !53
  %49 = getelementptr inbounds nuw %struct.H5O_storage_chunk_t, ptr %48, i32 0, i32 3
  %50 = getelementptr inbounds nuw %struct.H5O_storage_chunk_earray_t, ptr %49, i32 0, i32 1
  store ptr null, ptr %50, align 8, !tbaa !26
  %51 = load ptr, ptr %4, align 8, !tbaa !53
  %52 = getelementptr inbounds nuw %struct.H5O_storage_chunk_t, ptr %51, i32 0, i32 3
  %53 = getelementptr inbounds nuw %struct.H5O_storage_chunk_earray_t, ptr %52, i32 0, i32 1
  %54 = load ptr, ptr %53, align 8, !tbaa !26
  %55 = call i32 @H5EA_close(ptr noundef %54)
  %56 = icmp slt i32 %55, 0
  br i1 %56, label %57, label %76

57:                                               ; preds = %47
  br label %58

58:                                               ; preds = %57
  br label %59

59:                                               ; preds = %58
  br label %60

60:                                               ; preds = %59
  %61 = load i64, ptr @H5E_DATASET_g, align 8, !tbaa !10
  %62 = load i64, ptr @H5E_CANTCLOSEOBJ_g, align 8, !tbaa !10
  %63 = call i32 (ptr, ptr, i32, i64, i64, ptr, ...) @H5E_printf_stack(ptr noundef @.str.2, ptr noundef @__func__.H5D__earray_idx_copy_shutdown, i32 noundef 1648, i64 noundef %61, i64 noundef %62, ptr noundef @.str.26)
  br label %64

64:                                               ; preds = %60
  br label %65

65:                                               ; preds = %64
  store i8 1, ptr %6, align 1, !tbaa !14
  %66 = load i8, ptr %6, align 1, !tbaa !14, !range !16, !noundef !17
  %67 = trunc i8 %66 to i1
  %68 = zext i1 %67 to i8
  store i8 %68, ptr %6, align 1, !tbaa !14
  br label %69

69:                                               ; preds = %65
  br label %70

70:                                               ; preds = %69
  br label %71

71:                                               ; preds = %70
  store i32 -1, ptr %5, align 4, !tbaa !12
  br label %80

72:                                               ; No predecessors!
  br label %73

73:                                               ; preds = %72
  br label %74

74:                                               ; preds = %73
  br label %75

75:                                               ; preds = %74
  br label %76

76:                                               ; preds = %75, %47
  %77 = load ptr, ptr %4, align 8, !tbaa !53
  %78 = getelementptr inbounds nuw %struct.H5O_storage_chunk_t, ptr %77, i32 0, i32 3
  %79 = getelementptr inbounds nuw %struct.H5O_storage_chunk_earray_t, ptr %78, i32 0, i32 1
  store ptr null, ptr %79, align 8, !tbaa !26
  br label %80

80:                                               ; preds = %76, %71, %42
  br label %81

81:                                               ; preds = %80, %13
  %82 = load i32, ptr %5, align 4, !tbaa !12
  call void @llvm.lifetime.end.p0(i64 1, ptr %6) #8
  call void @llvm.lifetime.end.p0(i64 4, ptr %5) #8
  ret i32 %82
}