; Function Attrs: nounwind uwtable
define internal range(i32 -1, 1) i32 @H5D__earray_idx_copy_shutdown(ptr noundef captures(none) %0, ptr noundef captures(none) %1) #0 {
  %3 = load i8, ptr @H5D_init_g, align 1, !tbaa !3, !range !7, !noundef !8
  %4 = trunc nuw i8 %3 to i1
  %5 = load i8, ptr @H5_libterm_g, align 1, !range !7
  %6 = trunc nuw i8 %5 to i1
  %7 = xor i1 %6, true
  %8 = select i1 %4, i1 true, i1 %7
  br i1 %8, label %9, label %28, !prof !9

9:                                                ; preds = %2
  %10 = getelementptr inbounds nuw i8, ptr %0, i64 32
  %11 = load ptr, ptr %10, align 8, !tbaa !21
  %12 = tail call i32 @H5EA_close(ptr noundef %11) #11
  %13 = icmp slt i32 %12, 0
  br i1 %13, label %14, label %18

14:                                               ; preds = %9
  %15 = load i64, ptr @H5E_DATASET_g, align 8, !tbaa !10
  %16 = load i64, ptr @H5E_CANTCLOSEOBJ_g, align 8, !tbaa !10
  %17 = tail call i32 (ptr, ptr, i32, i64, i64, ptr, ...) @H5E_printf_stack(ptr noundef nonnull @.str.2, ptr noundef nonnull @__func__.H5D__earray_idx_copy_shutdown, i32 noundef 1645, i64 noundef %15, i64 noundef %16, ptr noundef nonnull @.str.26) #11
  br label %28

18:                                               ; preds = %9
  store ptr null, ptr %10, align 8, !tbaa !21
  %19 = getelementptr inbounds nuw i8, ptr %1, i64 32
  %20 = load ptr, ptr %19, align 8, !tbaa !21
  %21 = tail call i32 @H5EA_close(ptr noundef %20) #11
  %22 = icmp slt i32 %21, 0
  br i1 %22, label %23, label %27

23:                                               ; preds = %18
  %24 = load i64, ptr @H5E_DATASET_g, align 8, !tbaa !10
  %25 = load i64, ptr @H5E_CANTCLOSEOBJ_g, align 8, !tbaa !10
  %26 = tail call i32 (ptr, ptr, i32, i64, i64, ptr, ...) @H5E_printf_stack(ptr noundef nonnull @.str.2, ptr noundef nonnull @__func__.H5D__earray_idx_copy_shutdown, i32 noundef 1648, i64 noundef %24, i64 noundef %25, ptr noundef nonnull @.str.26) #11
  br label %28

27:                                               ; preds = %18
  store ptr null, ptr %19, align 8, !tbaa !21
  br label %28

28:                                               ; preds = %14, %23, %27, %2
  %.0 = phi i32 [ -1, %14 ], [ -1, %23 ], [ 0, %27 ], [ 0, %2 ]
  ret i32 %.0
}